BL51 BANKED LINKER/LOCATER V6.22                                                        05/20/2019  17:21:42  PAGE 1


BL51 BANKED LINKER/LOCATER V6.22, INVOKED BY:
D:\KEIL\C51\BIN\BL51.EXE Main.obj TO DC RAMSIZE (256)


MEMORY MODEL: SMALL WITH FLOATING POINT ARITHMETIC


INPUT MODULES INCLUDED:
  Main.obj (MAIN)
  D:\KEIL\C51\LIB\C51FPS.LIB (?C?FPADD)
  D:\KEIL\C51\LIB\C51FPS.LIB (?C?FPMUL)
  D:\KEIL\C51\LIB\C51FPS.LIB (?C?FPDIV)
  D:\KEIL\C51\LIB\C51FPS.LIB (?C?FCAST)
  D:\KEIL\C51\LIB\C51FPS.LIB (?C?CASTF)
  D:\KEIL\C51\LIB\C51FPS.LIB (?C?FPGETOPN)
  D:\KEIL\C51\LIB\C51S.LIB (?C_STARTUP)
  D:\KEIL\C51\LIB\C51S.LIB (?C?LMUL)
  D:\KEIL\C51\LIB\C51S.LIB (?C?LNEG)
  D:\KEIL\C51\LIB\C51S.LIB (?C?ULCMP)
  D:\KEIL\C51\LIB\C51S.LIB (?C_INIT)


LINK MAP OF MODULE:  DC (MAIN)


            TYPE    BASE      LENGTH    RELOCATION   SEGMENT NAME
            -----------------------------------------------------

            * * * * * * *   D A T A   M E M O R Y   * * * * * * *
            REG     0000H     0008H     ABSOLUTE     "REG BANK 0"
            DATA    0008H     0018H     UNIT         _DATA_GROUP_
            DATA    0020H     0010H     UNIT         ?DT?MAIN
            IDATA   0030H     0001H     UNIT         ?STACK

            * * * * * * *   C O D E   M E M O R Y   * * * * * * *
            CODE    0000H     0003H     ABSOLUTE     
            CODE    0003H     0012H     UNIT         ?PR?_DELAY1?MAIN
            CODE    0015H     000AH     UNIT         ?PR?LED_CONTROL?MAIN
            CODE    001FH     0004H     UNIT         ?C_INITSEG
            CODE    0023H     0003H     ABSOLUTE     
            CODE    0026H     03CBH     UNIT         ?C?LIB_CODE
            CODE    03F1H     00E4H     UNIT         ?PR?MESURE_SIGNAL?MAIN
            CODE    04D5H     008CH     UNIT         ?C_C51STARTUP
            CODE    0561H     0057H     UNIT         ?PR?SYS_INT?MAIN
            CODE    05B8H     004CH     UNIT         ?PR?FLUOR_CONVERT?MAIN
            CODE    0604H     0049H     UNIT         ?PR?MAIN?MAIN
            CODE    064DH     0048H     UNIT         ?PR?SEND_DATA?MAIN
            CODE    0695H     0047H     UNIT         ?PR?COMMUN?MAIN
            CODE    06DCH     0029H     UNIT         ?PR?SEND_REPLY?MAIN
            CODE    0705H     000FH     UNIT         ?PR?FLUOR_MEASURE?MAIN



OVERLAY MAP OF MODULE:   DC (MAIN)


SEGMENT                          DATA_GROUP 
  +--> CALLED SEGMENT          START    LENGTH
BL51 BANKED LINKER/LOCATER V6.22                                                      05/20/2019  17:21:42  PAGE 2


----------------------------------------------
?C_C51STARTUP                  -----    -----
  +--> ?PR?MAIN?MAIN
  +--> ?C_INITSEG

?PR?MAIN?MAIN                  -----    -----
  +--> ?PR?_DELAY1?MAIN
  +--> ?PR?SYS_INT?MAIN
  +--> ?PR?SEND_REPLY?MAIN
  +--> ?PR?FLUOR_MEASURE?MAIN
  +--> ?PR?SEND_DATA?MAIN
  +--> ?PR?LED_CONTROL?MAIN

?PR?SYS_INT?MAIN               -----    -----
  +--> ?PR?_DELAY1?MAIN

?PR?FLUOR_MEASURE?MAIN         -----    -----
  +--> ?PR?MESURE_SIGNAL?MAIN

?PR?MESURE_SIGNAL?MAIN         0008H    0015H
  +--> ?PR?FLUOR_CONVERT?MAIN

?PR?FLUOR_CONVERT?MAIN         001DH    0003H

?PR?LED_CONTROL?MAIN           0008H    0004H



SYMBOL TABLE OF MODULE:  DC (MAIN)

  VALUE           TYPE          NAME
  ----------------------------------

  -------         MODULE        MAIN
  C:0000H         SYMBOL        _ICE_DUMMY_
  D:00A0H         PUBLIC        P2
  D:00B0H         PUBLIC        P3
  B:00A8H.7       PUBLIC        EA
  D:00D8H         PUBLIC        ADCSTAT
  D:00D2H         PUBLIC        ADC0CON1
  D:00E6H         PUBLIC        ADC0CON2
  C:0561H         PUBLIC        sys_int
  B:00A8H.6       PUBLIC        EADC
  D:00A8H         PUBLIC        IE
  D:009DH         PUBLIC        T3FD
  C:0695H         PUBLIC        commun
  B:00A8H.4       PUBLIC        ES
  D:00D4H         PUBLIC        SF
  D:00B8H         PUBLIC        IP
  B:0098H.0       PUBLIC        RI
  C:0015H         PUBLIC        LED_Control
  B:0098H.1       PUBLIC        TI
  D:0020H         PUBLIC        LED_Current
  B:00D8H.7       PUBLIC        RDY0
  D:00E8H         PUBLIC        I2CCON
  D:0024H         PUBLIC        rece
  D:00E8H         PUBLIC        DCON
BL51 BANKED LINKER/LOCATER V6.22                                                      05/20/2019  17:21:42  PAGE 3


  C:0604H         PUBLIC        main
  C:064DH         PUBLIC        send_data
  D:0027H         PUBLIC        Flu_Sig
  D:0099H         PUBLIC        SBUF
  D:0098H         PUBLIC        SCON
  D:0089H         PUBLIC        TMOD
  D:0088H         PUBLIC        TCON
  C:03F1H         PUBLIC        Mesure_Signal
  C:06DCH         PUBLIC        send_reply
  D:0029H         PUBLIC        con_kinds
  D:00DBH         PUBLIC        ADC0H
  C:0705H         PUBLIC        Fluor_Measure
  C:0003H         PUBLIC        _delay1
  D:00D9H         PUBLIC        ADC0L
  D:00DAH         PUBLIC        ADC0M
  B:00A8H.1       PUBLIC        ET0
  B:00A8H.3       PUBLIC        ET1
  D:00D7H         PUBLIC        PLLCON
  D:008CH         PUBLIC        TH0
  D:008DH         PUBLIC        TH1
  D:00F8H         PUBLIC        SPICON
  D:008AH         PUBLIC        TL0
  D:008BH         PUBLIC        TL1
  B:0088H.4       PUBLIC        TR0
  B:0088H.6       PUBLIC        TR1
  D:002AH         PUBLIC        Flu_S
  D:00C8H         PUBLIC        T2CON
  D:009EH         PUBLIC        T3CON
  D:002CH         PUBLIC        Result_Fluor
  D:00D1H         PUBLIC        ADCMODE
  C:05B8H         PUBLIC        Fluor_convert
  D:00AFH         PUBLIC        CFG847
  D:00D0H         PUBLIC        PSW
  D:00C0H         PUBLIC        WDCON
  -------         PROC          _DELAY1
  D:0006H         SYMBOL        x
  -------         DO            
  D:0004H         SYMBOL        i
  -------         ENDDO         
  C:0003H         LINE#         20
  C:0003H         LINE#         21
  C:0003H         LINE#         23
  C:0014H         LINE#         24
  -------         ENDPROC       _DELAY1
  -------         PROC          FLUOR_CONVERT
  -------         DO            
  D:0004H         SYMBOL        test_F
  D:001DH         SYMBOL        sample
  -------         ENDDO         
  C:05B8H         LINE#         27
  C:05B8H         LINE#         28
  C:05B8H         LINE#         32
  C:05BAH         LINE#         33
  C:05BDH         LINE#         34
  C:05C0H         LINE#         35
  C:05C2H         LINE#         36
  C:05C5H         LINE#         37
BL51 BANKED LINKER/LOCATER V6.22                                                      05/20/2019  17:21:42  PAGE 4


  C:05C8H         LINE#         38
  C:05CBH         LINE#         39
  C:05CEH         LINE#         40
  C:0603H         LINE#         41
  C:0603H         LINE#         42
  -------         ENDPROC       FLUOR_CONVERT
  -------         PROC          MESURE_SIGNAL
  -------         DO            
  D:0008H         SYMBOL        test_Fluor
  D:000CH         SYMBOL        temp
  D:0004H         SYMBOL        Fluor_Signal
  D:0010H         SYMBOL        Aver_Signal
  D:0014H         SYMBOL        i
  D:0015H         SYMBOL        Max_t
  D:0019H         SYMBOL        Min_t
  -------         ENDDO         
  C:03F1H         LINE#         45
  C:03F1H         LINE#         46
  C:03F1H         LINE#         47
  C:03FAH         LINE#         50
  C:03FCH         LINE#         52
  C:040FH         LINE#         54
  C:0412H         LINE#         55
  C:0412H         LINE#         56
  C:041DH         LINE#         58
  C:0435H         LINE#         59
  C:0443H         LINE#         60
  C:044FH         LINE#         61
  C:0465H         LINE#         62
  C:0471H         LINE#         63
  C:047AH         LINE#         64
  C:04A4H         LINE#         65
  C:04C1H         LINE#         67
  C:04D4H         LINE#         68
  C:04D4H         LINE#         69
  -------         ENDPROC       MESURE_SIGNAL
  -------         PROC          FLUOR_MEASURE
  C:0705H         LINE#         72
  C:0705H         LINE#         73
  C:0705H         LINE#         75
  C:0708H         LINE#         76
  C:0713H         LINE#         77
  -------         ENDPROC       FLUOR_MEASURE
  -------         PROC          SEND_DATA
  C:064DH         LINE#         79
  C:064DH         LINE#         80
  C:064DH         LINE#         86
  C:0665H         LINE#         87
  C:0669H         LINE#         88
  C:066CH         LINE#         90
  C:066EH         LINE#         91
  C:0670H         LINE#         92
  C:0672H         LINE#         94
  C:0675H         LINE#         95
  C:0678H         LINE#         96
  C:067AH         LINE#         98
  C:067DH         LINE#         99
BL51 BANKED LINKER/LOCATER V6.22                                                      05/20/2019  17:21:42  PAGE 5


  C:0680H         LINE#         100
  C:0682H         LINE#         102
  C:0685H         LINE#         103
  C:0688H         LINE#         104
  C:068AH         LINE#         106
  C:068DH         LINE#         107
  C:0690H         LINE#         108
  C:0692H         LINE#         110
  C:0694H         LINE#         111
  -------         ENDPROC       SEND_DATA
  -------         PROC          SEND_REPLY
  C:06DCH         LINE#         114
  C:06DCH         LINE#         115
  C:06DCH         LINE#         118
  C:06DEH         LINE#         119
  C:06E0H         LINE#         120
  C:06E2H         LINE#         122
  C:06E5H         LINE#         123
  C:06E8H         LINE#         124
  C:06EAH         LINE#         126
  C:06EDH         LINE#         127
  C:06F0H         LINE#         128
  C:06F2H         LINE#         130
  C:06F5H         LINE#         131
  C:06F8H         LINE#         132
  C:06FAH         LINE#         134
  C:06FDH         LINE#         135
  C:0700H         LINE#         136
  C:0702H         LINE#         138
  C:0704H         LINE#         139
  -------         ENDPROC       SEND_REPLY
  -------         PROC          SYS_INT
  C:0561H         LINE#         144
  C:0561H         LINE#         145
  C:0561H         LINE#         148
  C:0568H         LINE#         149
  C:056AH         LINE#         151
  C:056DH         LINE#         152
  C:0570H         LINE#         154
  C:0572H         LINE#         155
  C:0575H         LINE#         157
  C:0578H         LINE#         158
  C:057BH         LINE#         159
  C:057EH         LINE#         161
  C:0580H         LINE#         163
  C:0583H         LINE#         165
  C:0586H         LINE#         167
  C:0589H         LINE#         168
  C:058CH         LINE#         169
  C:058EH         LINE#         171
  C:0591H         LINE#         172
  C:0594H         LINE#         173
  C:0596H         LINE#         175
  C:0598H         LINE#         176
  C:059AH         LINE#         178
  C:059CH         LINE#         180
  C:059FH         LINE#         181
BL51 BANKED LINKER/LOCATER V6.22                                                      05/20/2019  17:21:42  PAGE 6


  C:05A2H         LINE#         182
  C:05A5H         LINE#         184
  C:05A8H         LINE#         186
  C:05B3H         LINE#         188
  C:05B5H         LINE#         189
  C:05B7H         LINE#         190
  -------         ENDPROC       SYS_INT
  -------         PROC          LED_CONTROL
  -------         DO            
  D:0008H         SYMBOL        LED_Tempt
  -------         ENDDO         
  C:0015H         LINE#         193
  C:0015H         LINE#         194
  C:0015H         LINE#         196
  C:001EH         LINE#         197
  C:001EH         LINE#         198
  C:001EH         LINE#         199
  C:001EH         LINE#         201
  C:001EH         LINE#         204
  C:001EH         LINE#         206
  C:001EH         LINE#         208
  C:001EH         LINE#         209
  C:001EH         LINE#         210
  C:001EH         LINE#         211
  -------         ENDPROC       LED_CONTROL
  -------         PROC          MAIN
  C:0604H         LINE#         214
  C:0604H         LINE#         215
  C:0604H         LINE#         220
  C:060BH         LINE#         221
  C:060EH         LINE#         222
  C:0615H         LINE#         224
  C:0615H         LINE#         225
  C:0615H         LINE#         227
  C:0622H         LINE#         228
  C:0622H         LINE#         229
  C:0622H         LINE#         230
  C:0625H         LINE#         231
  C:0632H         LINE#         232
  C:0635H         LINE#         233
  C:0637H         LINE#         235
  C:0637H         LINE#         236
  C:063AH         LINE#         237
  C:063DH         LINE#         238
  C:0640H         LINE#         239
  C:0642H         LINE#         241
  C:0642H         LINE#         242
  C:0645H         LINE#         243
  C:0648H         LINE#         244
  C:064BH         LINE#         245
  -------         ENDPROC       MAIN
  -------         PROC          COMMUN
  C:0695H         LINE#         254
  C:0699H         LINE#         259
  C:069BH         LINE#         260
  C:069DH         LINE#         268
  C:06A0H         LINE#         269
BL51 BANKED LINKER/LOCATER V6.22                                                      05/20/2019  17:21:42  PAGE 7


  C:06A2H         LINE#         271
  C:06A5H         LINE#         272
  C:06A8H         LINE#         273
  C:06AAH         LINE#         275
  C:06ADH         LINE#         276
  C:06B0H         LINE#         277
  C:06B2H         LINE#         279
  C:06B7H         LINE#         280
  C:06B7H         LINE#         281
  C:06C8H         LINE#         282
  C:06C8H         LINE#         283
  C:06C8H         LINE#         284
  C:06CBH         LINE#         285
  C:06CDH         LINE#         287
  C:06CDH         LINE#         288
  C:06D0H         LINE#         289
  C:06D2H         LINE#         291
  C:06D2H         LINE#         292
  C:06D2H         LINE#         293
  C:06D5H         LINE#         294
  C:06D5H         LINE#         296
  C:06D5H         LINE#         297
  C:06D5H         LINE#         298
  C:06D5H         LINE#         299
  C:06D5H         LINE#         300
  C:06D7H         LINE#         301
  -------         ENDPROC       COMMUN
  -------         ENDMOD        MAIN

  -------         MODULE        ?C?FPADD
  C:002DH         PUBLIC        ?C?FPADD
  C:0029H         PUBLIC        ?C?FPSUB
  -------         ENDMOD        ?C?FPADD

  -------         MODULE        ?C?FPMUL
  C:011EH         PUBLIC        ?C?FPMUL
  -------         ENDMOD        ?C?FPMUL

  -------         MODULE        ?C?FPDIV
  C:0227H         PUBLIC        ?C?FPDIV
  -------         ENDMOD        ?C?FPDIV

  -------         MODULE        ?C?FCAST
  C:02CEH         PUBLIC        ?C?FCASTC
  C:02C9H         PUBLIC        ?C?FCASTI
  C:02C4H         PUBLIC        ?C?FCASTL
  -------         ENDMOD        ?C?FCAST

  -------         MODULE        ?C?CASTF
  C:0302H         PUBLIC        ?C?CASTF
  -------         ENDMOD        ?C?CASTF

  -------         MODULE        ?C?LMUL
  C:0383H         PUBLIC        ?C?LMUL
  -------         ENDMOD        ?C?LMUL

  -------         MODULE        ?C?LNEG
BL51 BANKED LINKER/LOCATER V6.22                                                      05/20/2019  17:21:42  PAGE 8


  C:03D2H         PUBLIC        ?C?LNEG
  -------         ENDMOD        ?C?LNEG

  -------         MODULE        ?C?ULCMP
  C:03E0H         PUBLIC        ?C?ULCMP
  -------         ENDMOD        ?C?ULCMP

Program Size: data=49.0 xdata=0 code=1812
LINK/LOCATE RUN COMPLETE.  0 WARNING(S),  0 ERROR(S)
