BL51 BANKED LINKER/LOCATER V6.22                                                        11/19/2020  16:10:02  PAGE 1


BL51 BANKED LINKER/LOCATER V6.22, INVOKED BY:
D:\KEIL5\KEIL_C51\C51\BIN\BL51.EXE .\OBJ\Main.obj TO .\OBJ\DC PRINT (.\DC.m51) RAMSIZE (256)


MEMORY MODEL: SMALL WITH FLOATING POINT ARITHMETIC


INPUT MODULES INCLUDED:
  .\OBJ\Main.obj (MAIN)
  D:\KEIL5\KEIL_C51\C51\LIB\C51FPS.LIB (?C?FPADD)
  D:\KEIL5\KEIL_C51\C51\LIB\C51FPS.LIB (?C?FPMUL)
  D:\KEIL5\KEIL_C51\C51\LIB\C51FPS.LIB (?C?FPDIV)
  D:\KEIL5\KEIL_C51\C51\LIB\C51FPS.LIB (?C?FPCMP)
  D:\KEIL5\KEIL_C51\C51\LIB\C51FPS.LIB (?C?FCAST)
  D:\KEIL5\KEIL_C51\C51\LIB\C51FPS.LIB (?C?CASTF)
  D:\KEIL5\KEIL_C51\C51\LIB\C51FPS.LIB (LOG)
  D:\KEIL5\KEIL_C51\C51\LIB\C51FPS.LIB (?C?FPGETOPN)
  D:\KEIL5\KEIL_C51\C51\LIB\C51FPS.LIB (?C?FPSERIES)
  D:\KEIL5\KEIL_C51\C51\LIB\C51S.LIB (?C_STARTUP)
  D:\KEIL5\KEIL_C51\C51\LIB\C51S.LIB (?C?CLDOPTR)
  D:\KEIL5\KEIL_C51\C51\LIB\C51S.LIB (?C?LMUL)
  D:\KEIL5\KEIL_C51\C51\LIB\C51S.LIB (?C?LNEG)
  D:\KEIL5\KEIL_C51\C51\LIB\C51S.LIB (?C?LLDCODE)
  D:\KEIL5\KEIL_C51\C51\LIB\C51S.LIB (?C?LLDCODE0)
  D:\KEIL5\KEIL_C51\C51\LIB\C51S.LIB (?C?LLDIIDATA)
  D:\KEIL5\KEIL_C51\C51\LIB\C51S.LIB (?C_INIT)


LINK MAP OF MODULE:  .\OBJ\DC (MAIN)


            TYPE    BASE      LENGTH    RELOCATION   SEGMENT NAME
            -----------------------------------------------------

            * * * * * * *   D A T A   M E M O R Y   * * * * * * *
            REG     0000H     0008H     ABSOLUTE     "REG BANK 0"
            DATA    0008H     0005H     UNIT         ?DT?_UART_SENDSTRING?MAIN
                    000DH     0013H                  *** GAP ***
            BIT     0020H.0   0000H.1   UNIT         ?BI?MAIN
            BIT     0020H.1   0000H.1   UNIT         _BIT_GROUP_
                    0020H.2   0000H.6                *** GAP ***
            DATA    0021H     0025H     UNIT         ?DT?MAIN
            DATA    0046H     0020H     UNIT         _DATA_GROUP_
            IDATA   0066H     0001H     UNIT         ?STACK

            * * * * * * *   C O D E   M E M O R Y   * * * * * * *
            CODE    0000H     0003H     ABSOLUTE     
            CODE    0003H     0003H     ABSOLUTE     
                    0006H     001DH                  *** GAP ***
            CODE    0023H     0003H     ABSOLUTE     
            CODE    0026H     04EDH     UNIT         ?C?LIB_CODE
            CODE    0513H     01FCH     UNIT         ?PR?MAIN?MAIN
            CODE    070FH     0135H     UNIT         ?PR?LOG?LOG
            CODE    0844H     0131H     UNIT         ?PR?TEMPERATURE_CONVERT?MAIN
            CODE    0975H     00C7H     UNIT         ?PR?_MOTOR_REMIX_STAY?MAIN
            CODE    0A3CH     00A9H     UNIT         ?PR?_MOTOR_REMIX_DOWN?MAIN
            CODE    0AE5H     008CH     UNIT         ?C_C51STARTUP
            CODE    0B71H     0084H     UNIT         ?PR?COMMUN?MAIN
BL51 BANKED LINKER/LOCATER V6.22                                                      11/19/2020  16:10:02  PAGE 2


            CODE    0BF5H     006CH     UNIT         ?PR?_TMP_CONTROL?MAIN
            CODE    0C61H     005FH     UNIT         ?PR?SYS_INT?MAIN
            CODE    0CC0H     004CH     UNIT         ?PR?SEND_DATA?MAIN
            CODE    0D0CH     004CH     UNIT         ?PR?SEND_DATA_MIXINGHOLD?MAIN
            CODE    0D58H     004CH     UNIT         ?PR?SEND_DATA_TEMPDOWN?MAIN
            CODE    0DA4H     004CH     UNIT         ?PR?SEND_DATA_MIXINGDOWN?MAIN
            CODE    0DF0H     0047H     UNIT         ?PR?_FAN_EN?MAIN
            CODE    0E37H     0036H     UNIT         ?PR?_UART_SENDSTRING?MAIN
            CODE    0E6DH     002CH     UNIT         ?PR?_DELAY?MAIN
            CODE    0E99H     0029H     UNIT         ?PR?SEND_DATA_ABACK?MAIN
            CODE    0EC2H     0029H     UNIT         ?PR?SEND_DATA_Y?MAIN
            CODE    0EEBH     0026H     UNIT         ?C_INITSEG
            CODE    0F11H     0020H     UNIT         ?PR?INTERRUPTINT0?MAIN



OVERLAY MAP OF MODULE:   .\OBJ\DC (MAIN)


SEGMENT                                  BIT_GROUP          DATA_GROUP 
  +--> CALLED SEGMENT                 START    LENGTH     START    LENGTH
-------------------------------------------------------------------------
?C_C51STARTUP                         -----    -----      -----    -----
  +--> ?PR?MAIN?MAIN
  +--> ?C_INITSEG

?PR?MAIN?MAIN                         -----    -----      -----    -----
  +--> ?PR?SYS_INT?MAIN
  +--> ?PR?_DELAY?MAIN
  +--> ?PR?TEMPERATURE_CONVERT?MAIN
  +--> ?PR?_TMP_CONTROL?MAIN
  +--> ?PR?SEND_DATA?MAIN
  +--> ?PR?SEND_DATA_MIXINGHOLD?MAIN
  +--> ?PR?_MOTOR_REMIX_STAY?MAIN
  +--> ?PR?SEND_DATA_TEMPDOWN?MAIN
  +--> ?PR?_FAN_EN?MAIN
  +--> ?PR?SEND_DATA_MIXINGDOWN?MAIN
  +--> ?PR?_MOTOR_REMIX_DOWN?MAIN
  +--> ?PR?SEND_DATA_Y?MAIN

?PR?SYS_INT?MAIN                      -----    -----      -----    -----
  +--> ?PR?_DELAY?MAIN

?PR?_DELAY?MAIN                       -----    -----      0050H    0004H

?PR?TEMPERATURE_CONVERT?MAIN          -----    -----      0050H    0012H
  +--> ?PR?LOG?LOG

?PR?LOG?LOG                           0020H.1  0000H.1    0062H    0004H

?PR?_TMP_CONTROL?MAIN                 -----    -----      0050H    0004H

?PR?_MOTOR_REMIX_STAY?MAIN            -----    -----      0046H    0008H
  +--> ?PR?TEMPERATURE_CONVERT?MAIN
  +--> ?PR?_TMP_CONTROL?MAIN
  +--> ?PR?_DELAY?MAIN
  +--> ?PR?SEND_DATA_MIXINGHOLD?MAIN
BL51 BANKED LINKER/LOCATER V6.22                                                      11/19/2020  16:10:02  PAGE 3



?PR?_FAN_EN?MAIN                      -----    -----      0046H    0004H
  +--> ?PR?TEMPERATURE_CONVERT?MAIN
  +--> ?PR?_TMP_CONTROL?MAIN
  +--> ?PR?_DELAY?MAIN
  +--> ?PR?SEND_DATA_TEMPDOWN?MAIN

?PR?_MOTOR_REMIX_DOWN?MAIN            -----    -----      0046H    000AH
  +--> ?PR?TEMPERATURE_CONVERT?MAIN
  +--> ?PR?_TMP_CONTROL?MAIN
  +--> ?PR?_DELAY?MAIN
  +--> ?PR?SEND_DATA_MIXINGDOWN?MAIN



SYMBOL TABLE OF MODULE:  .\OBJ\DC (MAIN)

  VALUE           TYPE          NAME
  ----------------------------------

  -------         MODULE        MAIN
  C:0000H         SYMBOL        _ICE_DUMMY_
  C:0E99H         PUBLIC        send_data_aback
  D:0080H         PUBLIC        P0
  D:00A0H         PUBLIC        P2
  C:0EC2H         PUBLIC        send_data_y
  D:00B0H         PUBLIC        P3
  B:00A8H.7       PUBLIC        EA
  D:00D8H         PUBLIC        ADCSTAT
  D:0021H         PUBLIC        restart
  D:00D2H         PUBLIC        ADC0CON1
  D:00E6H         PUBLIC        ADC0CON2
  C:0C61H         PUBLIC        sys_int
  B:00A8H.6       PUBLIC        EADC
  D:00A8H         PUBLIC        IE
  C:0E83H         PUBLIC        _delay
  B:0080H.1       PUBLIC        CON1
  D:009DH         PUBLIC        T3FD
  C:0B71H         PUBLIC        commun
  B:0080H.3       PUBLIC        EN
  B:0080H.0       PUBLIC        CON2
  D:0023H         PUBLIC        Ttest
  B:00A8H.4       PUBLIC        ES
  C:0BFDH         PUBLIC        _Tmp_control
  D:00D4H         PUBLIC        SF
  D:00B8H         PUBLIC        IP
  B:0098H.0       PUBLIC        RI
  B:0098H.1       PUBLIC        TI
  B:00D8H.7       PUBLIC        RDY0
  D:00E8H         PUBLIC        I2CCON
  D:0027H         PUBLIC        rece
  D:002AH         PUBLIC        tempi
  B:00B8H.4       PUBLIC        PS
  D:00E8H         PUBLIC        DCON
  C:0513H         PUBLIC        main
  B:0020H.0       PUBLIC        dir_control
  D:002CH         PUBLIC        mode
BL51 BANKED LINKER/LOCATER V6.22                                                      11/19/2020  16:10:02  PAGE 4


  C:0CC0H         PUBLIC        send_data
  D:002EH         PUBLIC        heat_status
  D:002FH         PUBLIC        X0MODE
  D:0099H         PUBLIC        SBUF
  D:0098H         PUBLIC        SCON
  D:0088H         PUBLIC        TCON
  D:0031H         PUBLIC        temperature
  D:0035H         PUBLIC        con_kinds
  D:00DBH         PUBLIC        ADC0H
  C:0D0CH         PUBLIC        send_data_mixinghold
  D:00D9H         PUBLIC        ADC0L
  D:0036H         PUBLIC        cnt
  D:00DAH         PUBLIC        ADC0M
  B:00A8H.1       PUBLIC        ET0
  B:00A8H.3       PUBLIC        ET1
  D:00D7H         PUBLIC        PLLCON
  D:0037H         PUBLIC        Tem_rel
  D:008CH         PUBLIC        TH0
  B:00A8H.0       PUBLIC        EX0
  B:0088H.0       PUBLIC        IT0
  D:008DH         PUBLIC        TH1
  D:00F8H         PUBLIC        SPICON
  D:008AH         PUBLIC        TL0
  D:008BH         PUBLIC        TL1
  C:0DA4H         PUBLIC        send_data_mixingdown
  B:0088H.4       PUBLIC        TR0
  D:00AEH         PUBLIC        PWMCON
  B:0088H.6       PUBLIC        TR1
  C:0A3CH         PUBLIC        _motor_remix_down
  D:003BH         PUBLIC        Temperature_Signal
  D:003FH         PUBLIC        du
  D:0041H         PUBLIC        dutycycle
  B:0080H.2       PUBLIC        DIR
  C:0975H         PUBLIC        _motor_remix_stay
  D:0043H         PUBLIC        highbit
  C:0E37H         PUBLIC        _uart_sendstring
  D:00C8H         PUBLIC        T2CON
  D:009EH         PUBLIC        T3CON
  C:0DF0H         PUBLIC        _fan_en
  D:00B2H         PUBLIC        PWM0H
  D:00B4H         PUBLIC        PWM1H
  D:00D1H         PUBLIC        ADCMODE
  C:0F11H         PUBLIC        InterruptINT0
  D:00B1H         PUBLIC        PWM0L
  D:00B3H         PUBLIC        PWM1L
  D:00AFH         PUBLIC        CFG847
  D:0045H         PUBLIC        flages
  D:00D0H         PUBLIC        PSW
  C:0844H         PUBLIC        Temperature_convert
  D:00C0H         PUBLIC        WDCON
  C:0D58H         PUBLIC        send_data_tempdown
  C:0E79H         SYMBOL        L?0143
  C:0E7FH         SYMBOL        L?0144
  -------         PROC          L?0142
  -------         ENDPROC       L?0142
  C:0E79H         SYMBOL        L?0143
  C:0E7FH         SYMBOL        L?0144
BL51 BANKED LINKER/LOCATER V6.22                                                      11/19/2020  16:10:02  PAGE 5


  -------         PROC          _DELAY
  D:0050H         SYMBOL        i
  C:0E83H         LINE#         33
  C:0E8BH         LINE#         34
  C:0E8BH         LINE#         35
  C:0E98H         LINE#         36
  -------         ENDPROC       _DELAY
  -------         PROC          TEMPERATURE_CONVERT
  -------         DO            
  D:0004H         SYMBOL        test_R
  D:0050H         SYMBOL        sample
  D:0056H         SYMBOL        tmp1
  D:005AH         SYMBOL        tmp2
  D:005EH         SYMBOL        tmp3
  D:0004H         SYMBOL        temper
  -------         ENDDO         
  C:0844H         LINE#         43
  C:0844H         LINE#         44
  C:0844H         LINE#         47
  C:084DH         LINE#         48
  C:0855H         LINE#         49
  C:085DH         LINE#         50
  C:0861H         LINE#         54
  C:0864H         LINE#         55
  C:0866H         LINE#         56
  C:0869H         LINE#         57
  C:086CH         LINE#         58
  C:086EH         LINE#         59
  C:0875H         LINE#         60
  C:087CH         LINE#         61
  C:0883H         LINE#         62
  C:0886H         LINE#         64
  C:08BBH         LINE#         65
  C:08DBH         LINE#         66
  C:0925H         LINE#         67
  C:094BH         LINE#         68
  C:0964H         LINE#         69
  C:096CH         LINE#         70
  C:0974H         LINE#         71
  C:0974H         LINE#         72
  -------         ENDPROC       TEMPERATURE_CONVERT
  -------         PROC          L?0145
  -------         ENDPROC       L?0145
  -------         PROC          _TMP_CONTROL
  D:0050H         SYMBOL        target
  C:0BFDH         LINE#         75
  C:0C05H         LINE#         76
  C:0C05H         LINE#         82
  C:0C11H         LINE#         84
  C:0C20H         LINE#         85
  C:0C20H         LINE#         86
  C:0C26H         LINE#         87
  C:0C26H         LINE#         88
  C:0C28H         LINE#         89
  C:0C28H         LINE#         90
  C:0C49H         LINE#         91
  C:0C49H         LINE#         92
BL51 BANKED LINKER/LOCATER V6.22                                                      11/19/2020  16:10:02  PAGE 6


  C:0C4FH         LINE#         93
  C:0C52H         LINE#         94
  C:0C54H         LINE#         95
  C:0C54H         LINE#         97
  C:0C54H         LINE#         98
  C:0C59H         LINE#         99
  C:0C5CH         LINE#         100
  C:0C5CH         LINE#         101
  C:0C60H         LINE#         102
  -------         ENDPROC       _TMP_CONTROL
  -------         PROC          SEND_DATA_ABACK
  C:0E99H         LINE#         131
  C:0E99H         LINE#         132
  C:0E9BH         LINE#         133
  C:0E9DH         LINE#         134
  C:0E9FH         LINE#         136
  C:0EA2H         LINE#         137
  C:0EA5H         LINE#         138
  C:0EA7H         LINE#         140
  C:0EAAH         LINE#         141
  C:0EADH         LINE#         142
  C:0EAFH         LINE#         144
  C:0EB2H         LINE#         145
  C:0EB5H         LINE#         146
  C:0EB7H         LINE#         148
  C:0EBAH         LINE#         149
  C:0EBDH         LINE#         150
  C:0EBFH         LINE#         152
  C:0EC1H         LINE#         154
  -------         ENDPROC       SEND_DATA_ABACK
  -------         PROC          SEND_DATA
  -------         DO            
  D:0002H         SYMBOL        temp_rel_H
  D:0006H         SYMBOL        temp_rel_L
  D:0004H         SYMBOL        temp_rel
  -------         ENDDO         
  C:0CC0H         LINE#         157
  C:0CC0H         LINE#         159
  C:0CC0H         LINE#         166
  C:0CD9H         LINE#         167
  C:0CDDH         LINE#         168
  C:0CE5H         LINE#         170
  C:0CE7H         LINE#         171
  C:0CE9H         LINE#         172
  C:0CEBH         LINE#         174
  C:0CEEH         LINE#         175
  C:0CF1H         LINE#         176
  C:0CF3H         LINE#         178
  C:0CF5H         LINE#         179
  C:0CF8H         LINE#         180
  C:0CFAH         LINE#         182
  C:0CFCH         LINE#         183
  C:0CFFH         LINE#         184
  C:0D01H         LINE#         186
  C:0D04H         LINE#         187
  C:0D07H         LINE#         188
  C:0D09H         LINE#         190
BL51 BANKED LINKER/LOCATER V6.22                                                      11/19/2020  16:10:02  PAGE 7


  C:0D0BH         LINE#         191
  -------         ENDPROC       SEND_DATA
  -------         PROC          SEND_DATA_Y
  C:0EC2H         LINE#         194
  C:0EC2H         LINE#         195
  C:0EC4H         LINE#         196
  C:0EC6H         LINE#         197
  C:0EC8H         LINE#         199
  C:0ECBH         LINE#         200
  C:0ECEH         LINE#         201
  C:0ED0H         LINE#         203
  C:0ED3H         LINE#         204
  C:0ED6H         LINE#         205
  C:0ED8H         LINE#         207
  C:0EDBH         LINE#         208
  C:0EDEH         LINE#         209
  C:0EE0H         LINE#         211
  C:0EE3H         LINE#         212
  C:0EE6H         LINE#         213
  C:0EE8H         LINE#         215
  C:0EEAH         LINE#         217
  -------         ENDPROC       SEND_DATA_Y
  -------         PROC          SEND_DATA_MIXINGHOLD
  -------         DO            
  D:0002H         SYMBOL        temp_rel_H
  D:0006H         SYMBOL        temp_rel_L
  D:0004H         SYMBOL        temp_rel
  -------         ENDDO         
  C:0D0CH         LINE#         220
  C:0D0CH         LINE#         221
  C:0D0CH         LINE#         228
  C:0D25H         LINE#         229
  C:0D29H         LINE#         230
  C:0D31H         LINE#         232
  C:0D33H         LINE#         233
  C:0D35H         LINE#         234
  C:0D37H         LINE#         236
  C:0D3AH         LINE#         237
  C:0D3DH         LINE#         238
  C:0D3FH         LINE#         240
  C:0D41H         LINE#         241
  C:0D44H         LINE#         242
  C:0D46H         LINE#         244
  C:0D48H         LINE#         245
  C:0D4BH         LINE#         246
  C:0D4DH         LINE#         248
  C:0D50H         LINE#         249
  C:0D53H         LINE#         250
  C:0D55H         LINE#         252
  C:0D57H         LINE#         254
  -------         ENDPROC       SEND_DATA_MIXINGHOLD
  -------         PROC          SEND_DATA_TEMPDOWN
  -------         DO            
  D:0002H         SYMBOL        temp_rel_H
  D:0006H         SYMBOL        temp_rel_L
  D:0004H         SYMBOL        temp_rel
  -------         ENDDO         
BL51 BANKED LINKER/LOCATER V6.22                                                      11/19/2020  16:10:02  PAGE 8


  C:0D58H         LINE#         257
  C:0D58H         LINE#         258
  C:0D58H         LINE#         265
  C:0D71H         LINE#         266
  C:0D75H         LINE#         267
  C:0D7DH         LINE#         269
  C:0D7FH         LINE#         270
  C:0D81H         LINE#         271
  C:0D83H         LINE#         273
  C:0D86H         LINE#         274
  C:0D89H         LINE#         275
  C:0D8BH         LINE#         277
  C:0D8DH         LINE#         278
  C:0D90H         LINE#         279
  C:0D92H         LINE#         281
  C:0D94H         LINE#         282
  C:0D97H         LINE#         283
  C:0D99H         LINE#         285
  C:0D9CH         LINE#         286
  C:0D9FH         LINE#         287
  C:0DA1H         LINE#         289
  C:0DA3H         LINE#         291
  -------         ENDPROC       SEND_DATA_TEMPDOWN
  -------         PROC          SEND_DATA_MIXINGDOWN
  -------         DO            
  D:0002H         SYMBOL        temp_rel_H
  D:0006H         SYMBOL        temp_rel_L
  D:0004H         SYMBOL        temp_rel
  -------         ENDDO         
  C:0DA4H         LINE#         294
  C:0DA4H         LINE#         295
  C:0DA4H         LINE#         302
  C:0DBDH         LINE#         303
  C:0DC1H         LINE#         304
  C:0DC9H         LINE#         306
  C:0DCBH         LINE#         307
  C:0DCDH         LINE#         308
  C:0DCFH         LINE#         310
  C:0DD2H         LINE#         311
  C:0DD5H         LINE#         312
  C:0DD7H         LINE#         314
  C:0DD9H         LINE#         315
  C:0DDCH         LINE#         316
  C:0DDEH         LINE#         318
  C:0DE0H         LINE#         319
  C:0DE3H         LINE#         320
  C:0DE5H         LINE#         322
  C:0DE8H         LINE#         323
  C:0DEBH         LINE#         324
  C:0DEDH         LINE#         326
  C:0DEFH         LINE#         328
  -------         ENDPROC       SEND_DATA_MIXINGDOWN
  -------         PROC          SYS_INT
  C:0C61H         LINE#         334
  C:0C61H         LINE#         335
  C:0C61H         LINE#         338
  C:0C64H         LINE#         339
BL51 BANKED LINKER/LOCATER V6.22                                                      11/19/2020  16:10:02  PAGE 9


  C:0C67H         LINE#         340
  C:0C6AH         LINE#         341
  C:0C6DH         LINE#         342
  C:0C70H         LINE#         344
  C:0C77H         LINE#         345
  C:0C79H         LINE#         347
  C:0C7CH         LINE#         348
  C:0C7EH         LINE#         350
  C:0C80H         LINE#         351
  C:0C83H         LINE#         353
  C:0C86H         LINE#         354
  C:0C89H         LINE#         355
  C:0C8CH         LINE#         357
  C:0C8EH         LINE#         363
  C:0C91H         LINE#         364
  C:0C94H         LINE#         365
  C:0C96H         LINE#         367
  C:0C99H         LINE#         368
  C:0C9CH         LINE#         369
  C:0C9EH         LINE#         371
  C:0CA0H         LINE#         372
  C:0CA2H         LINE#         374
  C:0CA4H         LINE#         376
  C:0CA7H         LINE#         377
  C:0CAAH         LINE#         378
  C:0CADH         LINE#         379
  C:0CAFH         LINE#         381
  C:0CB7H         LINE#         383
  C:0CB9H         LINE#         384
  C:0CBBH         LINE#         385
  C:0CBDH         LINE#         388
  C:0CBFH         LINE#         389
  -------         ENDPROC       SYS_INT
  -------         PROC          _UART_SENDSTRING
  D:0008H         SYMBOL        pt
  D:000BH         SYMBOL        num
  -------         DO            
  D:0006H         SYMBOL        i
  -------         ENDDO         
  C:0E37H         LINE#         391
  C:0E41H         LINE#         392
  C:0E41H         LINE#         394
  C:0E43H         LINE#         395
  C:0E4FH         LINE#         396
  C:0E4FH         LINE#         397
  C:0E5EH         LINE#         398
  C:0E61H         LINE#         399
  C:0E63H         LINE#         401
  C:0E6AH         LINE#         402
  C:0E6CH         LINE#         403
  -------         ENDPROC       _UART_SENDSTRING
  -------         PROC          _MOTOR_REMIX_STAY
  D:0046H         SYMBOL        cycle
  D:0048H         SYMBOL        T
  -------         DO            
  D:004AH         SYMBOL        i
  D:004CH         SYMBOL        tempi
BL51 BANKED LINKER/LOCATER V6.22                                                      11/19/2020  16:10:02  PAGE 10


  -------         ENDDO         
  C:0975H         LINE#         406
  C:097DH         LINE#         407
  C:097DH         LINE#         409
  C:0982H         LINE#         410
  C:0998H         LINE#         411
  C:099BH         LINE#         412
  C:09A6H         LINE#         414
  C:09AEH         LINE#         415
  C:09B0H         LINE#         416
  C:09B4H         LINE#         417
  C:09B7H         LINE#         418
  C:09BAH         LINE#         419
  C:09BCH         LINE#         420
  C:09C3H         LINE#         421
  C:09C6H         LINE#         422
  C:09C9H         LINE#         423
  C:09CCH         LINE#         425
  C:09D4H         LINE#         426
  C:09D4H         LINE#         427
  C:09D7H         LINE#         428
  C:09DBH         LINE#         429
  C:09DDH         LINE#         431
  C:09DDH         LINE#         432
  C:09E0H         LINE#         433
  C:09EBH         LINE#         435
  C:09EBH         LINE#         436
  C:09EDH         LINE#         437
  C:09F8H         LINE#         438
  C:0A03H         LINE#         439
  C:0A06H         LINE#         440
  C:0A11H         LINE#         441
  C:0A13H         LINE#         442
  C:0A17H         LINE#         443
  C:0A1AH         LINE#         444
  C:0A1DH         LINE#         445
  C:0A1DH         LINE#         446
  C:0A20H         LINE#         448
  C:0A23H         LINE#         449
  C:0A26H         LINE#         450
  C:0A31H         LINE#         451
  C:0A34H         LINE#         452
  C:0A39H         LINE#         453
  C:0A3BH         LINE#         455
  -------         ENDPROC       _MOTOR_REMIX_STAY
  -------         PROC          _MOTOR_REMIX_DOWN
  D:0046H         SYMBOL        cycle
  D:0048H         SYMBOL        T
  -------         DO            
  D:004AH         SYMBOL        i
  D:004CH         SYMBOL        k
  D:004EH         SYMBOL        tempi
  -------         ENDDO         
  C:0A3CH         LINE#         458
  C:0A44H         LINE#         459
  C:0A44H         LINE#         461
  C:0A49H         LINE#         462
BL51 BANKED LINKER/LOCATER V6.22                                                      11/19/2020  16:10:02  PAGE 11


  C:0A5FH         LINE#         463
  C:0A62H         LINE#         464
  C:0A6DH         LINE#         466
  C:0A75H         LINE#         467
  C:0A75H         LINE#         468
  C:0A75H         LINE#         469
  C:0A75H         LINE#         470
  C:0A75H         LINE#         471
  C:0A75H         LINE#         472
  C:0A78H         LINE#         473
  C:0A7BH         LINE#         474
  C:0A7EH         LINE#         475
  C:0A81H         LINE#         477
  C:0A89H         LINE#         478
  C:0A89H         LINE#         479
  C:0A8CH         LINE#         480
  C:0A90H         LINE#         481
  C:0A92H         LINE#         483
  C:0A92H         LINE#         484
  C:0A95H         LINE#         485
  C:0AA0H         LINE#         487
  C:0AA0H         LINE#         488
  C:0AA2H         LINE#         489
  C:0AADH         LINE#         490
  C:0AB8H         LINE#         491
  C:0ABBH         LINE#         495
  C:0AC6H         LINE#         496
  C:0AC6H         LINE#         497
  C:0AC6H         LINE#         498
  C:0AC6H         LINE#         499
  C:0AC6H         LINE#         500
  C:0AC6H         LINE#         501
  C:0AC9H         LINE#         503
  C:0ACCH         LINE#         504
  C:0ACFH         LINE#         505
  C:0ADAH         LINE#         506
  C:0ADDH         LINE#         507
  C:0AE2H         LINE#         508
  C:0AE4H         LINE#         510
  -------         ENDPROC       _MOTOR_REMIX_DOWN
  -------         PROC          _FAN_EN
  D:0046H         SYMBOL        cycle
  -------         DO            
  D:0048H         SYMBOL        i
  D:0002H         SYMBOL        j
  -------         ENDDO         
  C:0DF0H         LINE#         514
  C:0DF4H         LINE#         517
  C:0DF6H         LINE#         519
  C:0E0CH         LINE#         520
  C:0E0FH         LINE#         521
  C:0E12H         LINE#         524
  C:0E15H         LINE#         525
  C:0E15H         LINE#         526
  C:0E1CH         LINE#         527
  C:0E27H         LINE#         528
  C:0E2AH         LINE#         530
BL51 BANKED LINKER/LOCATER V6.22                                                      11/19/2020  16:10:02  PAGE 12


  C:0E34H         LINE#         531
  C:0E36H         LINE#         532
  -------         ENDPROC       _FAN_EN
  -------         PROC          MAIN
  C:0513H         LINE#         541
  C:0513H         LINE#         542
  C:0513H         LINE#         548
  C:0515H         LINE#         549
  C:0517H         LINE#         552
  C:051AH         LINE#         555
  C:051CH         LINE#         556
  C:051EH         LINE#         557
  C:0525H         LINE#         558
  C:052BH         LINE#         560
  C:052EH         LINE#         561
  C:0531H         LINE#         562
  C:0533H         LINE#         563
  C:0535H         LINE#         564
  C:053CH         LINE#         566
  C:053EH         LINE#         567
  C:0545H         LINE#         569
  C:054DH         LINE#         570
  C:054DH         LINE#         571
  C:054FH         LINE#         572
  C:0551H         LINE#         573
  C:0554H         LINE#         574
  C:0557H         LINE#         576
  C:0560H         LINE#         578
  C:0560H         LINE#         580
  C:0562H         LINE#         581
  C:056DH         LINE#         584
  C:0570H         LINE#         585
  C:0573H         LINE#         586
  C:0575H         LINE#         587
  C:0577H         LINE#         588
  C:057EH         LINE#         590
  C:0580H         LINE#         591
  C:0587H         LINE#         593
  C:058FH         LINE#         594
  C:058FH         LINE#         595
  C:0591H         LINE#         596
  C:0593H         LINE#         597
  C:0596H         LINE#         598
  C:0599H         LINE#         600
  C:05A2H         LINE#         602
  C:05A2H         LINE#         604
  C:05A4H         LINE#         605
  C:05AFH         LINE#         622
  C:05B3H         LINE#         623
  C:05B3H         LINE#         624
  C:05B3H         LINE#         625
  C:05BAH         LINE#         627
  C:05D6H         LINE#         628
  C:05D6H         LINE#         630
  C:05D6H         LINE#         631
  C:05DDH         LINE#         632
  C:05E0H         LINE#         633
BL51 BANKED LINKER/LOCATER V6.22                                                      11/19/2020  16:10:02  PAGE 13


  C:05EBH         LINE#         635
  C:05F0H         LINE#         636
  C:05F0H         LINE#         637
  C:05F3H         LINE#         638
  C:05F6H         LINE#         639
  C:05F6H         LINE#         640
  C:05FDH         LINE#         641
  C:05FFH         LINE#         643
  C:05FFH         LINE#         644
  C:060AH         LINE#         645
  C:060DH         LINE#         647
  C:0618H         LINE#         649
  C:061BH         LINE#         650
  C:0626H         LINE#         651
  C:062DH         LINE#         653
  C:0630H         LINE#         654
  C:063BH         LINE#         655
  C:063DH         LINE#         656
  C:0648H         LINE#         658
  C:0653H         LINE#         660
  C:0655H         LINE#         661
  C:0660H         LINE#         662
  C:066BH         LINE#         663
  C:066EH         LINE#         664
  C:0671H         LINE#         665
  C:0674H         LINE#         666
  C:0677H         LINE#         668
  C:0677H         LINE#         669
  C:067EH         LINE#         670
  C:0680H         LINE#         671
  C:0682H         LINE#         672
  C:0689H         LINE#         673
  C:068FH         LINE#         675
  C:0692H         LINE#         676
  C:0695H         LINE#         677
  C:0697H         LINE#         678
  C:0699H         LINE#         679
  C:069CH         LINE#         681
  C:069CH         LINE#         682
  C:06A3H         LINE#         683
  C:06A5H         LINE#         684
  C:06A8H         LINE#         685
  C:06ABH         LINE#         686
  C:06AEH         LINE#         687
  C:06B1H         LINE#         689
  C:06B1H         LINE#         690
  C:06B3H         LINE#         691
  C:06B5H         LINE#         692
  C:06BCH         LINE#         693
  C:06C2H         LINE#         695
  C:06C5H         LINE#         696
  C:06C8H         LINE#         697
  C:06CAH         LINE#         698
  C:06CCH         LINE#         699
  C:06D7H         LINE#         701
  C:06D9H         LINE#         702
  C:06E0H         LINE#         704
BL51 BANKED LINKER/LOCATER V6.22                                                      11/19/2020  16:10:02  PAGE 14


  C:06E8H         LINE#         705
  C:06E8H         LINE#         706
  C:06EAH         LINE#         707
  C:06ECH         LINE#         708
  C:06EFH         LINE#         709
  C:06F2H         LINE#         711
  C:06FCH         LINE#         712
  C:06FCH         LINE#         713
  C:06FEH         LINE#         714
  C:0709H         LINE#         715
  C:070CH         LINE#         716
  -------         ENDPROC       MAIN
  -------         PROC          INTERRUPTINT0
  C:0F11H         LINE#         733
  C:0F15H         LINE#         735
  C:0F22H         LINE#         736
  C:0F22H         LINE#         737
  C:0F22H         LINE#         738
  C:0F22H         LINE#         739
  C:0F22H         LINE#         740
  C:0F22H         LINE#         741
  C:0F22H         LINE#         743
  C:0F24H         LINE#         745
  C:0F2AH         LINE#         746
  C:0F2CH         LINE#         747
  C:0F2CH         LINE#         749
  C:0F2CH         LINE#         751
  C:0F2CH         LINE#         752
  C:0F2CH         LINE#         757
  -------         ENDPROC       INTERRUPTINT0
  -------         PROC          COMMUN
  C:0B71H         LINE#         781
  C:0B75H         LINE#         788
  C:0B77H         LINE#         789
  C:0B79H         LINE#         797
  C:0B7CH         LINE#         798
  C:0B7EH         LINE#         799
  C:0B81H         LINE#         800
  C:0B84H         LINE#         801
  C:0B86H         LINE#         803
  C:0B89H         LINE#         804
  C:0B8CH         LINE#         805
  C:0B8EH         LINE#         807
  C:0B9FH         LINE#         808
  C:0B9FH         LINE#         809
  C:0BA2H         LINE#         810
  C:0BA2H         LINE#         811
  C:0BB3H         LINE#         812
  C:0BB3H         LINE#         813
  C:0BB6H         LINE#         814
  C:0BB6H         LINE#         816
  C:0BCFH         LINE#         817
  C:0BCFH         LINE#         818
  C:0BCFH         LINE#         819
  C:0BD2H         LINE#         820
  C:0BD4H         LINE#         822
  C:0BD4H         LINE#         823
BL51 BANKED LINKER/LOCATER V6.22                                                      11/19/2020  16:10:02  PAGE 15


  C:0BD7H         LINE#         825
  C:0BD9H         LINE#         827
  C:0BD9H         LINE#         828
  C:0BDCH         LINE#         829
  C:0BDEH         LINE#         831
  C:0BDEH         LINE#         832
  C:0BE1H         LINE#         833
  C:0BE3H         LINE#         835
  C:0BE3H         LINE#         836
  C:0BE9H         LINE#         837
  C:0BEBH         LINE#         844
  C:0BEBH         LINE#         845
  C:0BEEH         LINE#         846
  C:0BEEH         LINE#         848
  C:0BEEH         LINE#         849
  C:0BEEH         LINE#         850
  C:0BEEH         LINE#         852
  C:0BF0H         LINE#         853
  -------         ENDPROC       COMMUN
  -------         ENDMOD        MAIN

  -------         MODULE        ?C?FPADD
  C:002DH         PUBLIC        ?C?FPADD
  C:0029H         PUBLIC        ?C?FPSUB
  -------         ENDMOD        ?C?FPADD

  -------         MODULE        ?C?FPMUL
  C:011EH         PUBLIC        ?C?FPMUL
  -------         ENDMOD        ?C?FPMUL

  -------         MODULE        ?C?FPDIV
  C:0227H         PUBLIC        ?C?FPDIV
  -------         ENDMOD        ?C?FPDIV

  -------         MODULE        ?C?FPCMP
  C:02C6H         PUBLIC        ?C?FPCMP
  C:02C4H         PUBLIC        ?C?FPCMP3
  -------         ENDMOD        ?C?FPCMP

  -------         MODULE        ?C?FCAST
  C:0347H         PUBLIC        ?C?FCASTC
  C:0342H         PUBLIC        ?C?FCASTI
  C:033DH         PUBLIC        ?C?FCASTL
  -------         ENDMOD        ?C?FCAST

  -------         MODULE        ?C?CASTF
  C:037BH         PUBLIC        ?C?CASTF
  -------         ENDMOD        ?C?CASTF

  -------         MODULE        LOG
  C:0743H         PUBLIC        _LOG
  C:073FH         PUBLIC        _LOG10
  -------         ENDMOD        LOG

  -------         MODULE        ?C?CLDOPTR
  C:0449H         PUBLIC        ?C?CLDOPTR
  -------         ENDMOD        ?C?CLDOPTR
BL51 BANKED LINKER/LOCATER V6.22                                                      11/19/2020  16:10:02  PAGE 16



  -------         MODULE        ?C?LMUL
  C:0476H         PUBLIC        ?C?LMUL
  -------         ENDMOD        ?C?LMUL

  -------         MODULE        ?C?LNEG
  C:04C5H         PUBLIC        ?C?LNEG
  -------         ENDMOD        ?C?LNEG

  -------         MODULE        ?C?LLDCODE
  C:04D3H         PUBLIC        ?C?LLDCODE
  -------         ENDMOD        ?C?LLDCODE

  -------         MODULE        ?C?LLDCODE0
  C:04E3H         PUBLIC        ?C?LLDCODE0
  -------         ENDMOD        ?C?LLDCODE0

  -------         MODULE        ?C?LLDIIDATA
  C:04FCH         PUBLIC        ?C?LLDIIDATA
  C:04F3H         PUBLIC        ?C?LLDIIDATA1
  C:04F5H         PUBLIC        ?C?LLDIIDATA8
  -------         ENDMOD        ?C?LLDIIDATA

*** WARNING L16: UNCALLED SEGMENT, IGNORED FOR OVERLAY PROCESS
    SEGMENT: ?PR?SEND_DATA_ABACK?MAIN

*** WARNING L16: UNCALLED SEGMENT, IGNORED FOR OVERLAY PROCESS
    SEGMENT: ?PR?_UART_SENDSTRING?MAIN

Program Size: data=83.2 xdata=0 code=3860
LINK/LOCATE RUN COMPLETE.  2 WARNING(S),  0 ERROR(S)
